target datalayout = "e-m:e-p270:32:32-p271:32:32-p272:64:64-i64:64-i128:128-f80:128-n8:16:32:64-S128"
target triple = "x86_64-pc-linux-gnu"

%struct.XML_Memory_Handling_Suite = type { ptr, ptr, ptr }
%struct.XML_ParserStruct = type { ptr, ptr, ptr, %struct.XML_Memory_Handling_Suite, ptr, ptr, ptr, i64, ptr, i64, i8, i32, ptr, ptr, ptr, ptr, ptr, ptr, ptr, ptr, ptr, ptr, ptr, ptr, ptr, ptr, ptr, ptr, ptr, ptr, ptr, ptr, ptr, ptr, ptr, ptr, ptr, ptr, %struct.INIT_ENCODING, ptr, ptr, i8, i8, ptr, ptr, ptr, ptr, %struct.prolog_state, ptr, i32, ptr, ptr, ptr, ptr, ptr, i8, i32, ptr, ptr, ptr, ptr, ptr, ptr, ptr, ptr, ptr, i8, i8, ptr, ptr, ptr, ptr, ptr, ptr, i32, i32, i32, ptr, ptr, i64, i8, %struct.position, %struct.STRING_POOL, %struct.STRING_POOL, ptr, i32, i8, ptr, %struct.XML_ParsingStatus, i64 }
%struct.INIT_ENCODING = type { %struct.encoding, ptr }
%struct.encoding = type { [3 x ptr], [2 x ptr], ptr, ptr, ptr, ptr, ptr, ptr, ptr, ptr, ptr, ptr, i32, i8, i8 }
%struct.prolog_state = type { ptr, i32, i32 }
%struct.position = type { i64, i64 }
%struct.STRING_POOL = type { ptr, ptr, ptr, ptr, ptr, ptr }
%struct.XML_ParsingStatus = type { i32, i8 }
%struct.tag = type { ptr, ptr, i32, %struct.TAG_NAME, ptr, ptr, ptr }
%struct.TAG_NAME = type { ptr, ptr, ptr, i32, i32, i32 }

; Function Attrs: nounwind uwtable
define internal zeroext i8 @storeRawNames(ptr noundef %0) #0 {
  %2 = alloca i8, align 1
  %3 = alloca ptr, align 8
  %4 = alloca ptr, align 8
  %5 = alloca i32, align 4
  %6 = alloca i32, align 4
  %7 = alloca i64, align 8
  %8 = alloca ptr, align 8
  %9 = alloca i32, align 4
  %10 = alloca ptr, align 8
  store ptr %0, ptr %3, align 8, !tbaa !13
  call void @llvm.lifetime.start.p0(i64 8, ptr %4) #10
  %11 = load ptr, ptr %3, align 8, !tbaa !13
  %12 = getelementptr inbounds nuw %struct.XML_ParserStruct, ptr %11, i32 0, i32 70
  %13 = load ptr, ptr %12, align 8, !tbaa !58
  store ptr %13, ptr %4, align 8, !tbaa !59
  br label %14

14:                                               ; preds = %152, %1
  %15 = load ptr, ptr %4, align 8, !tbaa !59
  %16 = icmp ne ptr %15, null
  br i1 %16, label %17, label %153

17:                                               ; preds = %14
  call void @llvm.lifetime.start.p0(i64 4, ptr %5) #10
  call void @llvm.lifetime.start.p0(i64 4, ptr %6) #10
  %18 = load ptr, ptr %4, align 8, !tbaa !59
  %19 = getelementptr inbounds nuw %struct.tag, ptr %18, i32 0, i32 3
  %20 = getelementptr inbounds nuw %struct.TAG_NAME, ptr %19, i32 0, i32 3
  %21 = load i32, ptr %20, align 8, !tbaa !287
  %22 = add nsw i32 %21, 1
  %23 = sext i32 %22 to i64
  %24 = mul i64 1, %23
  %25 = trunc i64 %24 to i32
  store i32 %25, ptr %6, align 4, !tbaa !177
  call void @llvm.lifetime.start.p0(i64 8, ptr %7) #10
  call void @llvm.lifetime.start.p0(i64 8, ptr %8) #10
  %26 = load ptr, ptr %4, align 8, !tbaa !59
  %27 = getelementptr inbounds nuw %struct.tag, ptr %26, i32 0, i32 4
  %28 = load ptr, ptr %27, align 8, !tbaa !190
  %29 = load i32, ptr %6, align 4, !tbaa !177
  %30 = sext i32 %29 to i64
  %31 = getelementptr inbounds i8, ptr %28, i64 %30
  store ptr %31, ptr %8, align 8, !tbaa !4
  %32 = load ptr, ptr %4, align 8, !tbaa !59
  %33 = getelementptr inbounds nuw %struct.tag, ptr %32, i32 0, i32 1
  %34 = load ptr, ptr %33, align 8, !tbaa !285
  %35 = load ptr, ptr %8, align 8, !tbaa !4
  %36 = icmp eq ptr %34, %35
  br i1 %36, label %37, label %38

37:                                               ; preds = %17
  store i32 3, ptr %9, align 4
  br label %150

38:                                               ; preds = %17
  %39 = load ptr, ptr %4, align 8, !tbaa !59
  %40 = getelementptr inbounds nuw %struct.tag, ptr %39, i32 0, i32 2
  %41 = load i32, ptr %40, align 8, !tbaa !286
  %42 = sext i32 %41 to i64
  %43 = add i64 %42, 0
  %44 = and i64 %43, -1
  store i64 %44, ptr %7, align 8, !tbaa !161
  %45 = load i64, ptr %7, align 8, !tbaa !161
  %46 = load i32, ptr %6, align 4, !tbaa !177
  %47 = sext i32 %46 to i64
  %48 = sub i64 2147483647, %47
  %49 = icmp ugt i64 %45, %48
  br i1 %49, label %50, label %51

50:                                               ; preds = %38
  store i8 0, ptr %2, align 1
  store i32 1, ptr %9, align 4
  br label %150

51:                                               ; preds = %38
  %52 = load i32, ptr %6, align 4, !tbaa !177
  %53 = load i64, ptr %7, align 8, !tbaa !161
  %54 = trunc i64 %53 to i32
  %55 = add nsw i32 %52, %54
  store i32 %55, ptr %5, align 4, !tbaa !177
  %56 = load i32, ptr %5, align 4, !tbaa !177
  %57 = sext i32 %56 to i64
  %58 = load ptr, ptr %4, align 8, !tbaa !59
  %59 = getelementptr inbounds nuw %struct.tag, ptr %58, i32 0, i32 5
  %60 = load ptr, ptr %59, align 8, !tbaa !282
  %61 = load ptr, ptr %4, align 8, !tbaa !59
  %62 = getelementptr inbounds nuw %struct.tag, ptr %61, i32 0, i32 4
  %63 = load ptr, ptr %62, align 8, !tbaa !190
  %64 = ptrtoint ptr %60 to i64
  %65 = ptrtoint ptr %63 to i64
  %66 = sub i64 %64, %65
  %67 = icmp sgt i64 %57, %66
  br i1 %67, label %68, label %135

68:                                               ; preds = %51
  call void @llvm.lifetime.start.p0(i64 8, ptr %10) #10
  %69 = load ptr, ptr %3, align 8, !tbaa !13
  %70 = getelementptr inbounds nuw %struct.XML_ParserStruct, ptr %69, i32 0, i32 3
  %71 = getelementptr inbounds nuw %struct.XML_Memory_Handling_Suite, ptr %70, i32 0, i32 1
  %72 = load ptr, ptr %71, align 8, !tbaa !213
  %73 = load ptr, ptr %4, align 8, !tbaa !59
  %74 = getelementptr inbounds nuw %struct.tag, ptr %73, i32 0, i32 4
  %75 = load ptr, ptr %74, align 8, !tbaa !190
  %76 = load i32, ptr %5, align 4, !tbaa !177
  %77 = sext i32 %76 to i64
  %78 = call ptr %72(ptr noundef %75, i64 noundef %77)
  store ptr %78, ptr %10, align 8, !tbaa !4
  %79 = load ptr, ptr %10, align 8, !tbaa !4
  %80 = icmp eq ptr %79, null
  br i1 %80, label %81, label %82

81:                                               ; preds = %68
  store i8 0, ptr %2, align 1
  store i32 1, ptr %9, align 4
  br label %132

82:                                               ; preds = %68
  %83 = load ptr, ptr %4, align 8, !tbaa !59
  %84 = getelementptr inbounds nuw %struct.tag, ptr %83, i32 0, i32 3
  %85 = getelementptr inbounds nuw %struct.TAG_NAME, ptr %84, i32 0, i32 0
  %86 = load ptr, ptr %85, align 8, !tbaa !288
  %87 = load ptr, ptr %4, align 8, !tbaa !59
  %88 = getelementptr inbounds nuw %struct.tag, ptr %87, i32 0, i32 4
  %89 = load ptr, ptr %88, align 8, !tbaa !190
  %90 = icmp eq ptr %86, %89
  br i1 %90, label %91, label %96

91:                                               ; preds = %82
  %92 = load ptr, ptr %10, align 8, !tbaa !4
  %93 = load ptr, ptr %4, align 8, !tbaa !59
  %94 = getelementptr inbounds nuw %struct.tag, ptr %93, i32 0, i32 3
  %95 = getelementptr inbounds nuw %struct.TAG_NAME, ptr %94, i32 0, i32 0
  store ptr %92, ptr %95, align 8, !tbaa !288
  br label %96

96:                                               ; preds = %91, %82
  %97 = load ptr, ptr %4, align 8, !tbaa !59
  %98 = getelementptr inbounds nuw %struct.tag, ptr %97, i32 0, i32 3
  %99 = getelementptr inbounds nuw %struct.TAG_NAME, ptr %98, i32 0, i32 1
  %100 = load ptr, ptr %99, align 8, !tbaa !283
  %101 = icmp ne ptr %100, null
  br i1 %101, label %102, label %118

102:                                              ; preds = %96
  %103 = load ptr, ptr %10, align 8, !tbaa !4
  %104 = load ptr, ptr %4, align 8, !tbaa !59
  %105 = getelementptr inbounds nuw %struct.tag, ptr %104, i32 0, i32 3
  %106 = getelementptr inbounds nuw %struct.TAG_NAME, ptr %105, i32 0, i32 1
  %107 = load ptr, ptr %106, align 8, !tbaa !283
  %108 = load ptr, ptr %4, align 8, !tbaa !59
  %109 = getelementptr inbounds nuw %struct.tag, ptr %108, i32 0, i32 4
  %110 = load ptr, ptr %109, align 8, !tbaa !190
  %111 = ptrtoint ptr %107 to i64
  %112 = ptrtoint ptr %110 to i64
  %113 = sub i64 %111, %112
  %114 = getelementptr inbounds i8, ptr %103, i64 %113
  %115 = load ptr, ptr %4, align 8, !tbaa !59
  %116 = getelementptr inbounds nuw %struct.tag, ptr %115, i32 0, i32 3
  %117 = getelementptr inbounds nuw %struct.TAG_NAME, ptr %116, i32 0, i32 1
  store ptr %114, ptr %117, align 8, !tbaa !283
  br label %118

118:                                              ; preds = %102, %96
  %119 = load ptr, ptr %10, align 8, !tbaa !4
  %120 = load ptr, ptr %4, align 8, !tbaa !59
  %121 = getelementptr inbounds nuw %struct.tag, ptr %120, i32 0, i32 4
  store ptr %119, ptr %121, align 8, !tbaa !190
  %122 = load ptr, ptr %10, align 8, !tbaa !4
  %123 = load i32, ptr %5, align 4, !tbaa !177
  %124 = sext i32 %123 to i64
  %125 = getelementptr inbounds i8, ptr %122, i64 %124
  %126 = load ptr, ptr %4, align 8, !tbaa !59
  %127 = getelementptr inbounds nuw %struct.tag, ptr %126, i32 0, i32 5
  store ptr %125, ptr %127, align 8, !tbaa !282
  %128 = load ptr, ptr %10, align 8, !tbaa !4
  %129 = load i32, ptr %6, align 4, !tbaa !177
  %130 = sext i32 %129 to i64
  %131 = getelementptr inbounds i8, ptr %128, i64 %130
  store ptr %131, ptr %8, align 8, !tbaa !4
  store i32 0, ptr %9, align 4
  br label %132

132:                                              ; preds = %118, %81
  call void @llvm.lifetime.end.p0(i64 8, ptr %10) #10
  %133 = load i32, ptr %9, align 4
  switch i32 %133, label %150 [
    i32 0, label %134
  ]

134:                                              ; preds = %132
  br label %135

135:                                              ; preds = %134, %51
  %136 = load ptr, ptr %8, align 8, !tbaa !4
  %137 = load ptr, ptr %4, align 8, !tbaa !59
  %138 = getelementptr inbounds nuw %struct.tag, ptr %137, i32 0, i32 1
  %139 = load ptr, ptr %138, align 8, !tbaa !285
  %140 = load ptr, ptr %4, align 8, !tbaa !59
  %141 = getelementptr inbounds nuw %struct.tag, ptr %140, i32 0, i32 2
  %142 = load i32, ptr %141, align 8, !tbaa !286
  %143 = sext i32 %142 to i64
  call void @llvm.memcpy.p0.p0.i64(ptr align 1 %136, ptr align 1 %139, i64 %143, i1 false)
  %144 = load ptr, ptr %8, align 8, !tbaa !4
  %145 = load ptr, ptr %4, align 8, !tbaa !59
  %146 = getelementptr inbounds nuw %struct.tag, ptr %145, i32 0, i32 1
  store ptr %144, ptr %146, align 8, !tbaa !285
  %147 = load ptr, ptr %4, align 8, !tbaa !59
  %148 = getelementptr inbounds nuw %struct.tag, ptr %147, i32 0, i32 0
  %149 = load ptr, ptr %148, align 8, !tbaa !60
  store ptr %149, ptr %4, align 8, !tbaa !59
  store i32 0, ptr %9, align 4
  br label %150

150:                                              ; preds = %135, %132, %50, %37
  call void @llvm.lifetime.end.p0(i64 8, ptr %8) #10
  call void @llvm.lifetime.end.p0(i64 8, ptr %7) #10
  call void @llvm.lifetime.end.p0(i64 4, ptr %6) #10
  call void @llvm.lifetime.end.p0(i64 4, ptr %5) #10
  %151 = load i32, ptr %9, align 4
  switch i32 %151, label %154 [
    i32 0, label %152
    i32 3, label %153
  ]

152:                                              ; preds = %150
  br label %14, !llvm.loop !298

153:                                              ; preds = %150, %14
  store i8 1, ptr %2, align 1
  store i32 1, ptr %9, align 4
  br label %154

154:                                              ; preds = %153, %150
  call void @llvm.lifetime.end.p0(i64 8, ptr %4) #10
  %155 = load i8, ptr %2, align 1
  ret i8 %155
}

; Function Attrs: nounwind uwtable
define internal i32 @externalEntityContentProcessor(ptr noundef %0, ptr noundef %1, ptr noundef %2, ptr noundef %3) #0 {
  %5 = alloca i32, align 4
  %6 = alloca ptr, align 8
  %7 = alloca ptr, align 8
  %8 = alloca ptr, align 8
  %9 = alloca ptr, align 8
  %10 = alloca i32, align 4
  %11 = alloca i32, align 4
  store ptr %0, ptr %6, align 8, !tbaa !13
  store ptr %1, ptr %7, align 8, !tbaa !4
  store ptr %2, ptr %8, align 8, !tbaa !4
  store ptr %3, ptr %9, align 8, !tbaa !191
  call void @llvm.lifetime.start.p0(i64 4, ptr %10) #10
  %12 = load ptr, ptr %6, align 8, !tbaa !13
  %13 = load ptr, ptr %6, align 8, !tbaa !13
  %14 = getelementptr inbounds nuw %struct.XML_ParserStruct, ptr %13, i32 0, i32 37
  %15 = load ptr, ptr %14, align 8, !tbaa !201
  %16 = load ptr, ptr %7, align 8, !tbaa !4
  %17 = load ptr, ptr %8, align 8, !tbaa !4
  %18 = load ptr, ptr %9, align 8, !tbaa !191
  %19 = load ptr, ptr %6, align 8, !tbaa !13
  %20 = getelementptr inbounds nuw %struct.XML_ParserStruct, ptr %19, i32 0, i32 88
  %21 = getelementptr inbounds nuw %struct.XML_ParsingStatus, ptr %20, i32 0, i32 1
  %22 = load i8, ptr %21, align 4, !tbaa !200
  %23 = icmp ne i8 %22, 0
  %24 = xor i1 %23, true
  %25 = zext i1 %24 to i32
  %26 = trunc i32 %25 to i8
  %27 = call i32 @doContent(ptr noundef %12, i32 noundef 1, ptr noundef %15, ptr noundef %16, ptr noundef %17, ptr noundef %18, i8 noundef zeroext %26, i32 noundef 1)
  store i32 %27, ptr %10, align 4, !tbaa !177
  %28 = load i32, ptr %10, align 4, !tbaa !177
  %29 = icmp eq i32 %28, 0
  br i1 %29, label %30, label %36

30:                                               ; preds = %4
  %31 = load ptr, ptr %6, align 8, !tbaa !13
  %32 = call zeroext i8 @storeRawNames(ptr noundef %31)
  %33 = icmp ne i8 %32, 0
  br i1 %33, label %35, label %34

34:                                               ; preds = %30
  store i32 1, ptr %5, align 4
  store i32 1, ptr %11, align 4
  br label %38

35:                                               ; preds = %30
  br label %36

36:                                               ; preds = %35, %4
  %37 = load i32, ptr %10, align 4, !tbaa !177
  store i32 %37, ptr %5, align 4
  store i32 1, ptr %11, align 4
  br label %38

38:                                               ; preds = %36, %34
  call void @llvm.lifetime.end.p0(i64 4, ptr %10) #10
  %39 = load i32, ptr %5, align 4
  ret i32 %39
}